; Function Attrs: cold nounwind optsize uwtable
define void @ff_dca_core_close(ptr noundef %0) local_unnamed_addr #6 {
  %2 = getelementptr inbounds nuw i8, ptr %0, i64 45848
  tail call void @av_freep(ptr noundef nonnull %2) #11
  %3 = getelementptr inbounds nuw i8, ptr %0, i64 45856
  tail call void @av_freep(ptr noundef nonnull %3) #11
  %4 = getelementptr inbounds nuw i8, ptr %0, i64 45784
  tail call void @av_tx_uninit(ptr noundef nonnull %4) #11
  %5 = getelementptr inbounds nuw i8, ptr %0, i64 45792
  tail call void @av_tx_uninit(ptr noundef nonnull %5) #11
  %6 = getelementptr inbounds nuw i8, ptr %0, i64 13368
  tail call void @av_freep(ptr noundef nonnull %6) #11
  %7 = getelementptr inbounds nuw i8, ptr %0, i64 13360
  store i32 0, ptr %7, align 16, !tbaa !73
  %8 = getelementptr inbounds nuw i8, ptr %0, i64 9768
  tail call void @av_freep(ptr noundef nonnull %8) #11
  %9 = getelementptr inbounds nuw i8, ptr %0, i64 9760
  store i32 0, ptr %9, align 16, !tbaa !209
  %10 = getelementptr inbounds nuw i8, ptr %0, i64 45872
  tail call void @av_freep(ptr noundef nonnull %10) #11
  %11 = getelementptr inbounds nuw i8, ptr %0, i64 45864
  store i32 0, ptr %11, align 8, !tbaa !272
  ret void
}